; Function Attrs: nounwind uwtable
define hidden ptr @_PyTokenizer_FromString(ptr noundef %0, i32 noundef %1, i32 noundef %2) local_unnamed_addr #0 {
  %4 = alloca [2 x ptr], align 16
  %5 = tail call ptr @_PyTokenizer_tok_new() #10
  %6 = icmp eq ptr %5, null
  br i1 %6, label %73, label %7

7:                                                ; preds = %3
  call void @llvm.lifetime.start.p0(i64 16, ptr nonnull %4) #10
  call void @llvm.memset.p0.i64(ptr noundef nonnull align 16 dereferenceable(16) %4, i8 0, i64 16, i1 false)
  %8 = tail call ptr @_PyTokenizer_translate_newlines(ptr noundef %0, i32 noundef %1, i32 noundef %2, ptr noundef nonnull %5) #10
  %9 = getelementptr inbounds nuw i8, ptr %5, i64 2824
  store ptr %8, ptr %9, align 8, !tbaa !4
  %10 = icmp eq ptr %8, null
  br i1 %10, label %decode_str.exit.thread, label %11

11:                                               ; preds = %7
  %12 = getelementptr inbounds nuw i8, ptr %5, i64 2808
  store ptr null, ptr %12, align 8, !tbaa !13
  %13 = getelementptr inbounds nuw i8, ptr %5, i64 2816
  store ptr %8, ptr %13, align 8, !tbaa !14
  %14 = tail call i32 @_PyTokenizer_check_bom(ptr noundef nonnull @buf_getc, ptr noundef nonnull @buf_ungetc, ptr noundef nonnull @buf_setreadl, ptr noundef nonnull %5) #10
  %.not.i = icmp eq i32 %14, 0
  br i1 %.not.i, label %15, label %17

15:                                               ; preds = %11
  %16 = tail call ptr @_PyTokenizer_error_ret(ptr noundef nonnull %5) #10
  br label %decode_str.exit

17:                                               ; preds = %11
  %18 = load ptr, ptr %13, align 8, !tbaa !14
  %19 = load ptr, ptr %12, align 8, !tbaa !13
  %.not59.i = icmp eq ptr %19, null
  br i1 %.not59.i, label %27, label %20

20:                                               ; preds = %17
  %21 = tail call ptr @_PyTokenizer_translate_into_utf8(ptr noundef %18, ptr noundef nonnull %19) #10
  %22 = icmp eq ptr %21, null
  br i1 %22, label %23, label %25

23:                                               ; preds = %20
  %24 = tail call ptr @_PyTokenizer_error_ret(ptr noundef nonnull %5) #10
  br label %decode_str.exit

25:                                               ; preds = %20
  %26 = tail call ptr @PyBytes_AsString(ptr noundef nonnull %21) #10
  br label %27

27:                                               ; preds = %25, %17
  %.047.i = phi ptr [ %21, %25 ], [ null, %17 ]
  %.045.i = phi ptr [ %26, %25 ], [ %18, %17 ]
  br label %28

28:                                               ; preds = %33, %27
  %.044.i = phi ptr [ %.045.i, %27 ], [ %34, %33 ]
  %.0.i = phi i32 [ 0, %27 ], [ %.1.i, %33 ]
  %29 = load i8, ptr %.044.i, align 1, !tbaa !15
  switch i8 %29, label %33 [
    i8 0, label %35
    i8 10, label %30
  ]

30:                                               ; preds = %28
  %31 = zext nneg i32 %.0.i to i64
  %32 = getelementptr [2 x ptr], ptr %4, i64 0, i64 %31
  store ptr %.044.i, ptr %32, align 8, !tbaa !16
  %.not60.i = icmp eq i32 %.0.i, 0
  br i1 %.not60.i, label %33, label %35

33:                                               ; preds = %30, %28
  %.1.i = phi i32 [ 1, %30 ], [ %.0.i, %28 ]
  %34 = getelementptr i8, ptr %.044.i, i64 1
  br label %28

35:                                               ; preds = %30, %28
  store ptr null, ptr %12, align 8, !tbaa !13
  %36 = load ptr, ptr %4, align 16, !tbaa !16
  %.not61.i = icmp eq ptr %36, null
  br i1 %.not61.i, label %.thread.i, label %37

37:                                               ; preds = %35
  %38 = ptrtoint ptr %36 to i64
  %39 = ptrtoint ptr %.045.i to i64
  %40 = sub i64 %38, %39
  %41 = tail call i32 @_PyTokenizer_check_coding_spec(ptr noundef %.045.i, i64 noundef %40, ptr noundef nonnull %5, ptr noundef nonnull @buf_setreadl) #10
  %.not62.i = icmp eq i32 %41, 0
  br i1 %.not62.i, label %decode_str.exit.thread, label %42

42:                                               ; preds = %37
  %43 = load ptr, ptr %12, align 8, !tbaa !13
  %44 = icmp eq ptr %43, null
  br i1 %44, label %45, label %.thread66.i

45:                                               ; preds = %42
  %46 = getelementptr inbounds nuw i8, ptr %5, i64 2744
  %47 = load i32, ptr %46, align 8, !tbaa !17
  %48 = icmp ne i32 %47, 2
  %49 = getelementptr inbounds nuw i8, ptr %4, i64 8
  %50 = load ptr, ptr %49, align 8
  %51 = icmp ne ptr %50, null
  %or.cond.i = select i1 %48, i1 %51, i1 false
  br i1 %or.cond.i, label %52, label %.thread.i

52:                                               ; preds = %45
  %53 = getelementptr i8, ptr %36, i64 1
  %54 = ptrtoint ptr %50 to i64
  %55 = sub i64 %54, %38
  %56 = tail call i32 @_PyTokenizer_check_coding_spec(ptr noundef %53, i64 noundef %55, ptr noundef nonnull %5, ptr noundef nonnull @buf_setreadl) #10
  %.not63.i = icmp eq i32 %56, 0
  br i1 %.not63.i, label %decode_str.exit.thread, label %57

57:                                               ; preds = %52
  %.pr.pre.i = load ptr, ptr %12, align 8, !tbaa !13
  %.not64.i = icmp eq ptr %.pr.pre.i, null
  br i1 %.not64.i, label %.thread.i, label %.thread66.i

.thread66.i:                                      ; preds = %57, %42
  %58 = phi ptr [ %.pr.pre.i, %57 ], [ %43, %42 ]
  %59 = tail call ptr @_PyTokenizer_translate_into_utf8(ptr noundef %.045.i, ptr noundef nonnull %58) #10
  %60 = icmp eq ptr %59, null
  br i1 %60, label %61, label %63

61:                                               ; preds = %.thread66.i
  %62 = tail call ptr @_PyTokenizer_error_ret(ptr noundef nonnull %5) #10
  br label %decode_str.exit

63:                                               ; preds = %.thread66.i
  %64 = getelementptr inbounds nuw i8, ptr %59, i64 32
  br label %.thread.i

.thread.i:                                        ; preds = %63, %57, %45, %35
  %.148.i = phi ptr [ %59, %63 ], [ %.047.i, %57 ], [ %.047.i, %35 ], [ %.047.i, %45 ]
  %.146.i = phi ptr [ %64, %63 ], [ %.045.i, %57 ], [ %.045.i, %35 ], [ %.045.i, %45 ]
  %65 = getelementptr inbounds nuw i8, ptr %5, i64 2792
  store ptr %.148.i, ptr %65, align 8, !tbaa !18
  br label %decode_str.exit

decode_str.exit.thread:                           ; preds = %7, %37, %52
  call void @llvm.lifetime.end.p0(i64 16, ptr nonnull %4) #10
  br label %67

decode_str.exit:                                  ; preds = %15, %23, %61, %.thread.i
  %.049.i = phi ptr [ %24, %23 ], [ %62, %61 ], [ %.146.i, %.thread.i ], [ %16, %15 ]
  call void @llvm.lifetime.end.p0(i64 16, ptr nonnull %4) #10
  %66 = icmp eq ptr %.049.i, null
  br i1 %66, label %67, label %68

67:                                               ; preds = %decode_str.exit.thread, %decode_str.exit
  tail call void @_PyTokenizer_Free(ptr noundef nonnull %5) #10
  br label %73

68:                                               ; preds = %decode_str.exit
  %69 = getelementptr inbounds nuw i8, ptr %5, i64 16
  store ptr %.049.i, ptr %69, align 8, !tbaa !19
  %70 = getelementptr inbounds nuw i8, ptr %5, i64 8
  store ptr %.049.i, ptr %70, align 8, !tbaa !20
  store ptr %.049.i, ptr %5, align 8, !tbaa !21
  %71 = getelementptr inbounds nuw i8, ptr %5, i64 48
  store ptr %.049.i, ptr %71, align 8, !tbaa !22
  %72 = getelementptr inbounds nuw i8, ptr %5, i64 2840
  store ptr @tok_underflow_string, ptr %72, align 8, !tbaa !23
  br label %73

73:                                               ; preds = %3, %68, %67
  %.0 = phi ptr [ null, %67 ], [ %5, %68 ], [ null, %3 ]
  ret ptr %.0
}